; Function Attrs: nounwind uwtable
define zeroext range(i8 0, 2) i8 @l_Lean_Omega_Constraint_isImpossible(ptr noundef readonly captures(none) %0) local_unnamed_addr #1 {
  %2 = getelementptr inbounds nuw i8, ptr %0, i64 8
  %3 = load ptr, ptr %2, align 8, !tbaa !11
  %4 = ptrtoint ptr %3 to i64
  %5 = and i64 %4, 1
  %.not.i = icmp eq i64 %5, 0
  br i1 %.not.i, label %9, label %6

6:                                                ; preds = %1
  %7 = lshr i64 %4, 1
  %8 = trunc i64 %7 to i32
  br label %lean_obj_tag.exit

9:                                                ; preds = %1
  %10 = getelementptr i8, ptr %3, i64 4
  %.val.i = load i32, ptr %10, align 4
  %11 = lshr i32 %.val.i, 24
  br label %lean_obj_tag.exit

lean_obj_tag.exit:                                ; preds = %6, %9
  %.0.i = phi i32 [ %8, %6 ], [ %11, %9 ]
  %12 = icmp eq i32 %.0.i, 0
  br i1 %12, label %43, label %13

13:                                               ; preds = %lean_obj_tag.exit
  %14 = getelementptr inbounds nuw i8, ptr %0, i64 16
  %15 = load ptr, ptr %14, align 8, !tbaa !11
  %16 = ptrtoint ptr %15 to i64
  %17 = and i64 %16, 1
  %.not.i11 = icmp eq i64 %17, 0
  br i1 %.not.i11, label %21, label %18

18:                                               ; preds = %13
  %19 = lshr i64 %16, 1
  %20 = trunc i64 %19 to i32
  br label %lean_obj_tag.exit14

21:                                               ; preds = %13
  %22 = getelementptr i8, ptr %15, i64 4
  %.val.i13 = load i32, ptr %22, align 4
  %23 = lshr i32 %.val.i13, 24
  br label %lean_obj_tag.exit14

lean_obj_tag.exit14:                              ; preds = %18, %21
  %.0.i12 = phi i32 [ %20, %18 ], [ %23, %21 ]
  %24 = icmp eq i32 %.0.i12, 0
  br i1 %24, label %43, label %25

25:                                               ; preds = %lean_obj_tag.exit14
  %26 = getelementptr inbounds nuw i8, ptr %3, i64 8
  %27 = load ptr, ptr %26, align 8, !tbaa !11
  %28 = getelementptr inbounds nuw i8, ptr %15, i64 8
  %29 = load ptr, ptr %28, align 8, !tbaa !11
  %30 = ptrtoint ptr %29 to i64
  %31 = and i64 %30, 1
  %.not.i.i = icmp eq i64 %31, 0
  br i1 %.not.i.i, label %.critedge.i.i, label %32, !prof !4

32:                                               ; preds = %25
  %33 = ptrtoint ptr %27 to i64
  %34 = and i64 %33, 1
  %.not7.i.i = icmp eq i64 %34, 0
  br i1 %.not7.i.i, label %.critedge.i.i, label %35, !prof !4

35:                                               ; preds = %32
  %36 = lshr i64 %30, 1
  %37 = trunc i64 %36 to i32
  %38 = lshr i64 %33, 1
  %39 = trunc i64 %38 to i32
  %40 = icmp slt i32 %37, %39
  br label %lean_int_dec_lt.exit

.critedge.i.i:                                    ; preds = %32, %25
  %41 = tail call zeroext i1 @lean_int_big_lt(ptr noundef %29, ptr noundef %27) #4
  br label %lean_int_dec_lt.exit

lean_int_dec_lt.exit:                             ; preds = %35, %.critedge.i.i
  %.0.i.i = phi i1 [ %40, %35 ], [ %41, %.critedge.i.i ]
  %42 = zext i1 %.0.i.i to i8
  br label %43

43:                                               ; preds = %lean_int_dec_lt.exit, %lean_obj_tag.exit14, %lean_obj_tag.exit
  %.0 = phi i8 [ 0, %lean_obj_tag.exit ], [ %42, %lean_int_dec_lt.exit ], [ 0, %lean_obj_tag.exit14 ]
  ret i8 %.0
}